target datalayout = "e-m:e-p270:32:32-p271:32:32-p272:64:64-i64:64-i128:128-f80:128-n8:16:32:64-S128"
target triple = "x86_64-pc-linux-gnu"

@hf_s5066dts_data_only_cpdu_start = internal global i32 0, align 4
@hf_s5066dts_data_only_cpdu_end = internal global i32 0, align 4
@hf_s5066dts_data_only_deliver_in_order = internal global i32 0, align 4
@hf_s5066dts_data_only_drop_cpdu = internal global i32 0, align 4
@hf_s5066dts_data_only_tx_win_uwe = internal global i32 0, align 4
@hf_s5066dts_data_only_tx_win_lwe = internal global i32 0, align 4
@hf_s5066dts_data_only_segmented_cpdu_size = internal global i32 0, align 4
@hf_s5066dts_data_only_transmit_sequence_number = internal global i32 0, align 4

; Function Attrs: null_pointer_is_valid sspstrong uwtable
define internal i32 @dissect_s5066dts_data_only(ptr noundef %0, i32 noundef %1, ptr noundef %2) #0 {
  %4 = alloca ptr, align 8
  %5 = alloca i32, align 4
  %6 = alloca ptr, align 8
  store ptr %0, ptr %4, align 8
  store i32 %1, ptr %5, align 4
  store ptr %2, ptr %6, align 8
  %7 = load ptr, ptr %6, align 8
  %8 = load i32, ptr @hf_s5066dts_data_only_cpdu_start, align 4
  %9 = load ptr, ptr %4, align 8
  %10 = load i32, ptr %5, align 4
  %11 = call ptr @proto_tree_add_item(ptr noundef %7, i32 noundef %8, ptr noundef %9, i32 noundef %10, i32 noundef 1, i32 noundef 0)
  %12 = load ptr, ptr %6, align 8
  %13 = load i32, ptr @hf_s5066dts_data_only_cpdu_end, align 4
  %14 = load ptr, ptr %4, align 8
  %15 = load i32, ptr %5, align 4
  %16 = call ptr @proto_tree_add_item(ptr noundef %12, i32 noundef %13, ptr noundef %14, i32 noundef %15, i32 noundef 1, i32 noundef 0)
  %17 = load ptr, ptr %6, align 8
  %18 = load i32, ptr @hf_s5066dts_data_only_deliver_in_order, align 4
  %19 = load ptr, ptr %4, align 8
  %20 = load i32, ptr %5, align 4
  %21 = call ptr @proto_tree_add_item(ptr noundef %17, i32 noundef %18, ptr noundef %19, i32 noundef %20, i32 noundef 1, i32 noundef 0)
  %22 = load ptr, ptr %6, align 8
  %23 = load i32, ptr @hf_s5066dts_data_only_drop_cpdu, align 4
  %24 = load ptr, ptr %4, align 8
  %25 = load i32, ptr %5, align 4
  %26 = call ptr @proto_tree_add_item(ptr noundef %22, i32 noundef %23, ptr noundef %24, i32 noundef %25, i32 noundef 1, i32 noundef 0)
  %27 = load ptr, ptr %6, align 8
  %28 = load i32, ptr @hf_s5066dts_data_only_tx_win_uwe, align 4
  %29 = load ptr, ptr %4, align 8
  %30 = load i32, ptr %5, align 4
  %31 = call ptr @proto_tree_add_item(ptr noundef %27, i32 noundef %28, ptr noundef %29, i32 noundef %30, i32 noundef 1, i32 noundef 0)
  %32 = load ptr, ptr %6, align 8
  %33 = load i32, ptr @hf_s5066dts_data_only_tx_win_lwe, align 4
  %34 = load ptr, ptr %4, align 8
  %35 = load i32, ptr %5, align 4
  %36 = call ptr @proto_tree_add_item(ptr noundef %32, i32 noundef %33, ptr noundef %34, i32 noundef %35, i32 noundef 1, i32 noundef 0)
  %37 = load ptr, ptr %6, align 8
  %38 = load i32, ptr @hf_s5066dts_data_only_segmented_cpdu_size, align 4
  %39 = load ptr, ptr %4, align 8
  %40 = load i32, ptr %5, align 4
  %41 = call ptr @proto_tree_add_item(ptr noundef %37, i32 noundef %38, ptr noundef %39, i32 noundef %40, i32 noundef 2, i32 noundef 0)
  %42 = load i32, ptr %5, align 4
  %43 = add i32 %42, 2
  store i32 %43, ptr %5, align 4
  %44 = load ptr, ptr %6, align 8
  %45 = load i32, ptr @hf_s5066dts_data_only_transmit_sequence_number, align 4
  %46 = load ptr, ptr %4, align 8
  %47 = load i32, ptr %5, align 4
  %48 = call ptr @proto_tree_add_item(ptr noundef %44, i32 noundef %45, ptr noundef %46, i32 noundef %47, i32 noundef 1, i32 noundef 0)
  %49 = load i32, ptr %5, align 4
  %50 = add i32 %49, 1
  store i32 %50, ptr %5, align 4
  %51 = load i32, ptr %5, align 4
  ret i32 %51
}