; Function Attrs: null_pointer_is_valid sspstrong uwtable
define internal fastcc range(i32 9, 17) i32 @dissect_s5066dts_data_only(ptr noundef %0, i32 noundef range(i32 6, 14) %1, ptr noundef %2) unnamed_addr #0 {
  %4 = load i32, ptr @hf_s5066dts_data_only_cpdu_start, align 4
  %5 = tail call ptr @proto_tree_add_item(ptr noundef %2, i32 noundef %4, ptr noundef %0, i32 noundef %1, i32 noundef 1, i32 noundef 0)
  %6 = load i32, ptr @hf_s5066dts_data_only_cpdu_end, align 4
  %7 = tail call ptr @proto_tree_add_item(ptr noundef %2, i32 noundef %6, ptr noundef %0, i32 noundef %1, i32 noundef 1, i32 noundef 0)
  %8 = load i32, ptr @hf_s5066dts_data_only_deliver_in_order, align 4
  %9 = tail call ptr @proto_tree_add_item(ptr noundef %2, i32 noundef %8, ptr noundef %0, i32 noundef %1, i32 noundef 1, i32 noundef 0)
  %10 = load i32, ptr @hf_s5066dts_data_only_drop_cpdu, align 4
  %11 = tail call ptr @proto_tree_add_item(ptr noundef %2, i32 noundef %10, ptr noundef %0, i32 noundef %1, i32 noundef 1, i32 noundef 0)
  %12 = load i32, ptr @hf_s5066dts_data_only_tx_win_uwe, align 4
  %13 = tail call ptr @proto_tree_add_item(ptr noundef %2, i32 noundef %12, ptr noundef %0, i32 noundef %1, i32 noundef 1, i32 noundef 0)
  %14 = load i32, ptr @hf_s5066dts_data_only_tx_win_lwe, align 4
  %15 = tail call ptr @proto_tree_add_item(ptr noundef %2, i32 noundef %14, ptr noundef %0, i32 noundef %1, i32 noundef 1, i32 noundef 0)
  %16 = load i32, ptr @hf_s5066dts_data_only_segmented_cpdu_size, align 4
  %17 = tail call ptr @proto_tree_add_item(ptr noundef %2, i32 noundef %16, ptr noundef %0, i32 noundef %1, i32 noundef 2, i32 noundef 0)
  %18 = add nuw nsw i32 %1, 2
  %19 = load i32, ptr @hf_s5066dts_data_only_transmit_sequence_number, align 4
  %20 = tail call ptr @proto_tree_add_item(ptr noundef %2, i32 noundef %19, ptr noundef %0, i32 noundef %18, i32 noundef 1, i32 noundef 0)
  %21 = add nuw nsw i32 %1, 3
  ret i32 %21
}